target datalayout = "e-m:e-p270:32:32-p271:32:32-p272:64:64-i64:64-i128:128-f80:128-n8:16:32:64-S128"
target triple = "x86_64-pc-linux-gnu"

%struct.tng_trajectory = type { ptr, ptr, i64, ptr, ptr, ptr, ptr, ptr, ptr, i8, i8, ptr, ptr, ptr, ptr, ptr, ptr, ptr, ptr, ptr, i64, i64, i8, i64, i64, i64, double, i64, ptr, ptr, i64, i64, i64, i64, i64, %struct.tng_trajectory_frame_set, i64, i64, i64, i32, ptr, i32, ptr, ptr, ptr, double }
%struct.tng_trajectory_frame_set = type { i64, ptr, i64, i64, i64, i64, ptr, i64, i64, i64, i64, i64, i64, i64, double, i32, ptr, i32, ptr }
%struct.tng_molecule = type { i64, i64, i64, i64, i64, i64, ptr, ptr, ptr, ptr, ptr }

@stderr = external global ptr, align 8
@.str = private unnamed_addr constant [45 x i8] c"TNG library: Cannot allocate memory. %s: %d\0A\00", align 1
@.str.1 = private unnamed_addr constant [130 x i8] c"generated/home/dtcxzyw/WorkSpace/Projects/compilers/llvm-opt-benchmark/bench/gromacs/gromacs/src/external/tng_io/src/lib/tng_io.c\00", align 1

; Function Attrs: nounwind uwtable
define i32 @tng_molecule_existing_add(ptr noundef %0, ptr noundef %1) #0 {
  %3 = alloca i32, align 4
  %4 = alloca ptr, align 8
  %5 = alloca ptr, align 8
  %6 = alloca ptr, align 8
  %7 = alloca i64, align 8
  %8 = alloca ptr, align 8
  %9 = alloca ptr, align 8
  %10 = alloca i32, align 4
  store ptr %0, ptr %4, align 8, !tbaa !3
  store ptr %1, ptr %5, align 8, !tbaa !30
  call void @llvm.lifetime.start.p0(i64 8, ptr %6) #11
  call void @llvm.lifetime.start.p0(i64 8, ptr %7) #11
  call void @llvm.lifetime.start.p0(i64 8, ptr %8) #11
  call void @llvm.lifetime.start.p0(i64 8, ptr %9) #11
  %11 = load ptr, ptr %4, align 8, !tbaa !3
  %12 = getelementptr inbounds nuw %struct.tng_trajectory, ptr %11, i32 0, i32 27
  %13 = load i64, ptr %12, align 8, !tbaa !32
  %14 = icmp ne i64 %13, 0
  br i1 %14, label %15, label %27

15:                                               ; preds = %2
  %16 = load ptr, ptr %4, align 8, !tbaa !3
  %17 = getelementptr inbounds nuw %struct.tng_trajectory, ptr %16, i32 0, i32 28
  %18 = load ptr, ptr %17, align 8, !tbaa !40
  %19 = load ptr, ptr %4, align 8, !tbaa !3
  %20 = getelementptr inbounds nuw %struct.tng_trajectory, ptr %19, i32 0, i32 27
  %21 = load i64, ptr %20, align 8, !tbaa !32
  %22 = sub nsw i64 %21, 1
  %23 = getelementptr inbounds %struct.tng_molecule, ptr %18, i64 %22
  %24 = getelementptr inbounds nuw %struct.tng_molecule, ptr %23, i32 0, i32 0
  %25 = load i64, ptr %24, align 8, !tbaa !41
  %26 = add nsw i64 %25, 1
  store i64 %26, ptr %7, align 8, !tbaa !26
  br label %28

27:                                               ; preds = %2
  store i64 1, ptr %7, align 8, !tbaa !26
  br label %28

28:                                               ; preds = %27, %15
  %29 = load ptr, ptr %4, align 8, !tbaa !3
  %30 = getelementptr inbounds nuw %struct.tng_trajectory, ptr %29, i32 0, i32 28
  %31 = load ptr, ptr %30, align 8, !tbaa !40
  %32 = load ptr, ptr %4, align 8, !tbaa !3
  %33 = getelementptr inbounds nuw %struct.tng_trajectory, ptr %32, i32 0, i32 27
  %34 = load i64, ptr %33, align 8, !tbaa !32
  %35 = add nsw i64 %34, 1
  %36 = mul i64 88, %35
  %37 = call ptr @realloc(ptr noundef %31, i64 noundef %36) #14
  store ptr %37, ptr %8, align 8, !tbaa !45
  %38 = load ptr, ptr %8, align 8, !tbaa !45
  %39 = icmp ne ptr %38, null
  br i1 %39, label %48, label %40

40:                                               ; preds = %28
  %41 = load ptr, ptr @stderr, align 8, !tbaa !24
  %42 = call i32 (ptr, ptr, ...) @fprintf(ptr noundef %41, ptr noundef @.str, ptr noundef @.str.1, i32 noundef 6595) #11
  %43 = load ptr, ptr %4, align 8, !tbaa !3
  %44 = getelementptr inbounds nuw %struct.tng_trajectory, ptr %43, i32 0, i32 28
  %45 = load ptr, ptr %44, align 8, !tbaa !40
  call void @free(ptr noundef %45) #11
  %46 = load ptr, ptr %4, align 8, !tbaa !3
  %47 = getelementptr inbounds nuw %struct.tng_trajectory, ptr %46, i32 0, i32 28
  store ptr null, ptr %47, align 8, !tbaa !40
  store i32 2, ptr %3, align 4
  store i32 1, ptr %10, align 4
  br label %107

48:                                               ; preds = %28
  %49 = load ptr, ptr %4, align 8, !tbaa !3
  %50 = getelementptr inbounds nuw %struct.tng_trajectory, ptr %49, i32 0, i32 29
  %51 = load ptr, ptr %50, align 8, !tbaa !46
  %52 = load ptr, ptr %4, align 8, !tbaa !3
  %53 = getelementptr inbounds nuw %struct.tng_trajectory, ptr %52, i32 0, i32 27
  %54 = load i64, ptr %53, align 8, !tbaa !32
  %55 = add nsw i64 %54, 1
  %56 = mul i64 8, %55
  %57 = call ptr @realloc(ptr noundef %51, i64 noundef %56) #14
  store ptr %57, ptr %6, align 8, !tbaa !47
  %58 = load ptr, ptr %6, align 8, !tbaa !47
  %59 = icmp ne ptr %58, null
  br i1 %59, label %69, label %60

60:                                               ; preds = %48
  %61 = load ptr, ptr @stderr, align 8, !tbaa !24
  %62 = call i32 (ptr, ptr, ...) @fprintf(ptr noundef %61, ptr noundef @.str, ptr noundef @.str.1, i32 noundef 6606) #11
  %63 = load ptr, ptr %4, align 8, !tbaa !3
  %64 = getelementptr inbounds nuw %struct.tng_trajectory, ptr %63, i32 0, i32 29
  %65 = load ptr, ptr %64, align 8, !tbaa !46
  call void @free(ptr noundef %65) #11
  %66 = load ptr, ptr %4, align 8, !tbaa !3
  %67 = getelementptr inbounds nuw %struct.tng_trajectory, ptr %66, i32 0, i32 29
  store ptr null, ptr %67, align 8, !tbaa !46
  %68 = load ptr, ptr %8, align 8, !tbaa !45
  call void @free(ptr noundef %68) #11
  store i32 2, ptr %3, align 4
  store i32 1, ptr %10, align 4
  br label %107

69:                                               ; preds = %48
  %70 = load ptr, ptr %5, align 8, !tbaa !30
  %71 = load ptr, ptr %70, align 8, !tbaa !45
  store ptr %71, ptr %9, align 8, !tbaa !45
  %72 = load ptr, ptr %8, align 8, !tbaa !45
  %73 = load ptr, ptr %4, align 8, !tbaa !3
  %74 = getelementptr inbounds nuw %struct.tng_trajectory, ptr %73, i32 0, i32 28
  store ptr %72, ptr %74, align 8, !tbaa !40
  %75 = load ptr, ptr %6, align 8, !tbaa !47
  %76 = load ptr, ptr %4, align 8, !tbaa !3
  %77 = getelementptr inbounds nuw %struct.tng_trajectory, ptr %76, i32 0, i32 29
  store ptr %75, ptr %77, align 8, !tbaa !46
  %78 = load ptr, ptr %8, align 8, !tbaa !45
  %79 = load ptr, ptr %4, align 8, !tbaa !3
  %80 = getelementptr inbounds nuw %struct.tng_trajectory, ptr %79, i32 0, i32 27
  %81 = load i64, ptr %80, align 8, !tbaa !32
  %82 = getelementptr inbounds %struct.tng_molecule, ptr %78, i64 %81
  %83 = load ptr, ptr %9, align 8, !tbaa !45
  call void @llvm.memcpy.p0.p0.i64(ptr align 8 %82, ptr align 8 %83, i64 88, i1 false), !tbaa.struct !58
  %84 = load ptr, ptr %4, align 8, !tbaa !3
  %85 = getelementptr inbounds nuw %struct.tng_trajectory, ptr %84, i32 0, i32 29
  %86 = load ptr, ptr %85, align 8, !tbaa !46
  %87 = load ptr, ptr %4, align 8, !tbaa !3
  %88 = getelementptr inbounds nuw %struct.tng_trajectory, ptr %87, i32 0, i32 27
  %89 = load i64, ptr %88, align 8, !tbaa !32
  %90 = getelementptr inbounds i64, ptr %86, i64 %89
  store i64 0, ptr %90, align 8, !tbaa !26
  %91 = load ptr, ptr %5, align 8, !tbaa !30
  %92 = load ptr, ptr %91, align 8, !tbaa !45
  call void @free(ptr noundef %92) #11
  %93 = load ptr, ptr %8, align 8, !tbaa !45
  %94 = load ptr, ptr %4, align 8, !tbaa !3
  %95 = getelementptr inbounds nuw %struct.tng_trajectory, ptr %94, i32 0, i32 27
  %96 = load i64, ptr %95, align 8, !tbaa !32
  %97 = getelementptr inbounds %struct.tng_molecule, ptr %93, i64 %96
  store ptr %97, ptr %9, align 8, !tbaa !45
  %98 = load ptr, ptr %9, align 8, !tbaa !45
  %99 = load ptr, ptr %5, align 8, !tbaa !30
  store ptr %98, ptr %99, align 8, !tbaa !45
  %100 = load i64, ptr %7, align 8, !tbaa !26
  %101 = load ptr, ptr %9, align 8, !tbaa !45
  %102 = getelementptr inbounds nuw %struct.tng_molecule, ptr %101, i32 0, i32 0
  store i64 %100, ptr %102, align 8, !tbaa !41
  %103 = load ptr, ptr %4, align 8, !tbaa !3
  %104 = getelementptr inbounds nuw %struct.tng_trajectory, ptr %103, i32 0, i32 27
  %105 = load i64, ptr %104, align 8, !tbaa !32
  %106 = add nsw i64 %105, 1
  store i64 %106, ptr %104, align 8, !tbaa !32
  store i32 0, ptr %3, align 4
  store i32 1, ptr %10, align 4
  br label %107

107:                                              ; preds = %69, %60, %40
  call void @llvm.lifetime.end.p0(i64 8, ptr %9) #11
  call void @llvm.lifetime.end.p0(i64 8, ptr %8) #11
  call void @llvm.lifetime.end.p0(i64 8, ptr %7) #11
  call void @llvm.lifetime.end.p0(i64 8, ptr %6) #11
  %108 = load i32, ptr %3, align 4
  ret i32 %108
}