; Function Attrs: nounwind uwtable
define range(i32 0, 3) i32 @tng_molecule_existing_add(ptr noundef captures(none) %0, ptr noundef captures(none) %1) local_unnamed_addr #4 {
  %3 = getelementptr inbounds nuw i8, ptr %0, i64 208
  %4 = load i64, ptr %3, align 8, !tbaa !19
  %.not = icmp eq i64 %4, 0
  %.phi.trans.insert = getelementptr inbounds nuw i8, ptr %0, i64 216
  %.pre = load ptr, ptr %.phi.trans.insert, align 8, !tbaa !28
  br i1 %.not, label %._crit_edge, label %5

5:                                                ; preds = %2
  %6 = getelementptr %struct.tng_molecule, ptr %.pre, i64 %4
  %7 = getelementptr i8, ptr %6, i64 -88
  %8 = load i64, ptr %7, align 8, !tbaa !29
  %9 = add nsw i64 %8, 1
  br label %._crit_edge

._crit_edge:                                      ; preds = %2, %5
  %.032 = phi i64 [ %9, %5 ], [ 1, %2 ]
  %10 = getelementptr inbounds nuw i8, ptr %0, i64 216
  %11 = mul i64 %4, 88
  %12 = add i64 %11, 88
  %13 = tail call ptr @realloc(ptr noundef %.pre, i64 noundef %12) #30
  %.not36 = icmp eq ptr %13, null
  br i1 %.not36, label %14, label %18

14:                                               ; preds = %._crit_edge
  %15 = load ptr, ptr @stderr, align 8, !tbaa !14
  %16 = tail call i32 (ptr, ptr, ...) @fprintf(ptr noundef %15, ptr noundef nonnull @.str, ptr noundef nonnull @.str.1, i32 noundef 6595) #29
  %17 = load ptr, ptr %10, align 8, !tbaa !28
  tail call void @free(ptr noundef %17) #26
  store ptr null, ptr %10, align 8, !tbaa !28
  br label %38

18:                                               ; preds = %._crit_edge
  %19 = getelementptr inbounds nuw i8, ptr %0, i64 224
  %20 = load ptr, ptr %19, align 8, !tbaa !34
  %21 = load i64, ptr %3, align 8, !tbaa !19
  %22 = shl i64 %21, 3
  %23 = add i64 %22, 8
  %24 = tail call ptr @realloc(ptr noundef %20, i64 noundef %23) #30
  %.not37 = icmp eq ptr %24, null
  br i1 %.not37, label %25, label %29

25:                                               ; preds = %18
  %26 = load ptr, ptr @stderr, align 8, !tbaa !14
  %27 = tail call i32 (ptr, ptr, ...) @fprintf(ptr noundef %26, ptr noundef nonnull @.str, ptr noundef nonnull @.str.1, i32 noundef 6606) #29
  %28 = load ptr, ptr %19, align 8, !tbaa !34
  tail call void @free(ptr noundef %28) #26
  store ptr null, ptr %19, align 8, !tbaa !34
  tail call void @free(ptr noundef nonnull %13) #26
  br label %38

29:                                               ; preds = %18
  %30 = load ptr, ptr %1, align 8, !tbaa !35
  store ptr %13, ptr %10, align 8, !tbaa !28
  store ptr %24, ptr %19, align 8, !tbaa !34
  %31 = load i64, ptr %3, align 8, !tbaa !19
  %32 = getelementptr inbounds %struct.tng_molecule, ptr %13, i64 %31
  tail call void @llvm.memcpy.p0.p0.i64(ptr noundef nonnull align 8 dereferenceable(88) %32, ptr noundef nonnull align 8 dereferenceable(88) %30, i64 88, i1 false), !tbaa.struct !39
  %33 = getelementptr inbounds i64, ptr %24, i64 %31
  store i64 0, ptr %33, align 8, !tbaa !38
  %34 = load ptr, ptr %1, align 8, !tbaa !35
  tail call void @free(ptr noundef %34) #26
  %35 = load i64, ptr %3, align 8, !tbaa !19
  %36 = getelementptr inbounds %struct.tng_molecule, ptr %13, i64 %35
  store ptr %36, ptr %1, align 8, !tbaa !35
  store i64 %.032, ptr %36, align 8, !tbaa !29
  %37 = add nsw i64 %35, 1
  store i64 %37, ptr %3, align 8, !tbaa !19
  br label %38

38:                                               ; preds = %29, %25, %14
  %.0 = phi i32 [ 0, %29 ], [ 2, %25 ], [ 2, %14 ]
  ret i32 %.0
}